; Function Attrs: mustprogress uwtable
define void @_ZN6casadi10SXFunctionC2ERKNSt7__cxx1112basic_stringIcSt11char_traitsIcESaIcEEERKSt6vectorINS_6MatrixINS_6SXElemEEESaISC_EESG_RKS9_IS6_SaIS6_EESK_(ptr noundef nonnull align 8 dereferenceable(1483) %0, ptr noundef nonnull align 8 dereferenceable(32) %1, ptr noundef nonnull align 8 dereferenceable(24) %2, ptr noundef nonnull align 8 dereferenceable(24) %3, ptr noundef nonnull align 8 dereferenceable(24) %4, ptr noundef nonnull align 8 dereferenceable(24) %5) unnamed_addr #3 align 2 {
  tail call void @_ZN6casadi9XFunctionINS_10SXFunctionENS_6MatrixINS_6SXElemEEENS_6SXNodeEEC2ERKNSt7__cxx1112basic_stringIcSt11char_traitsIcESaIcEEERKSt6vectorIS4_SaIS4_EESJ_RKSF_ISC_SaISC_EESN_(ptr noundef nonnull align 8 dereferenceable(1352) %0, ptr noundef nonnull align 8 dereferenceable(32) %1, ptr noundef nonnull align 8 dereferenceable(24) %2, ptr noundef nonnull align 8 dereferenceable(24) %3, ptr noundef nonnull align 8 dereferenceable(24) %4, ptr noundef nonnull align 8 dereferenceable(24) %5)
  store ptr getelementptr inbounds ({ [115 x ptr] }, ptr @_ZTVN6casadi10SXFunctionE, i64 0, i32 0, i64 2), ptr %0, align 8
  %7 = getelementptr inbounds i8, ptr %0, i64 1352
  tail call void @llvm.memset.p0.i64(ptr noundef nonnull align 8 dereferenceable(24) %7, i8 0, i64 24, i1 false)
  %8 = getelementptr inbounds i8, ptr %0, i64 1384
  tail call void @llvm.memset.p0.i64(ptr noundef nonnull align 8 dereferenceable(98) %8, i8 0, i64 98, i1 false)
  ret void
}